; Function Attrs: mustprogress uwtable
define noundef ptr @_ZN6google8protobuf8internal17PackedFloatParserEPvPKcPNS1_12ParseContextE(ptr noundef %0, ptr noundef %1, ptr noundef %2) local_unnamed_addr #3 {
  %4 = load i8, ptr %1, align 1, !tbaa !25
  %5 = zext i8 %4 to i32
  %6 = icmp sgt i8 %4, -1
  br i1 %6, label %7, label %.critedge.i.i.i

7:                                                ; preds = %3
  %8 = getelementptr inbounds nuw i8, ptr %1, i64 1
  br label %33

9:                                                ; preds = %.critedge.i.i.i
  %indvars.iv.next.i.i.i = add nuw nsw i64 %indvars.iv.i.i.i, 1
  %exitcond.not.i.i.i = icmp eq i64 %indvars.iv.next.i.i.i, 4
  br i1 %exitcond.not.i.i.i, label %22, label %.critedge.i.i.i, !llvm.loop !29

.critedge.i.i.i:                                  ; preds = %3, %9
  %indvars.iv.i.i.i = phi i64 [ %indvars.iv.next.i.i.i, %9 ], [ 1, %3 ]
  %.02234.i.i.i = phi i32 [ %17, %9 ], [ %5, %3 ]
  %10 = getelementptr inbounds nuw i8, ptr %1, i64 %indvars.iv.i.i.i
  %11 = load i8, ptr %10, align 1, !tbaa !25
  %12 = zext i8 %11 to i32
  %13 = add nsw i32 %12, -1
  %14 = trunc i64 %indvars.iv.i.i.i to i32
  %15 = mul i32 %14, 7
  %16 = shl nsw i32 %13, %15
  %17 = add i32 %16, %.02234.i.i.i
  %18 = icmp slt i8 %11, 0
  br i1 %18, label %9, label %19, !prof !27

19:                                               ; preds = %.critedge.i.i.i
  %20 = getelementptr inbounds nuw i8, ptr %1, i64 %indvars.iv.i.i.i
  %21 = getelementptr inbounds nuw i8, ptr %20, i64 1
  br label %33

22:                                               ; preds = %9
  %23 = getelementptr inbounds nuw i8, ptr %1, i64 4
  %24 = load i8, ptr %23, align 1, !tbaa !25
  %25 = icmp ugt i8 %24, 7
  br i1 %25, label %_ZN6google8protobuf8internal11FixedParserIfEEPKcPvS4_PNS1_12ParseContextE.exit, label %26, !prof !27

26:                                               ; preds = %22
  %27 = zext nneg i8 %24 to i32
  %28 = shl nuw nsw i32 %27, 28
  %29 = add i32 %17, -268435456
  %30 = add i32 %29, %28
  %31 = icmp ugt i32 %30, 2147483631
  %32 = getelementptr inbounds nuw i8, ptr %1, i64 5
  br i1 %31, label %_ZN6google8protobuf8internal11FixedParserIfEEPKcPvS4_PNS1_12ParseContextE.exit, label %33, !prof !27

33:                                               ; preds = %26, %19, %7
  %storemerge.i.ph.i = phi ptr [ %32, %26 ], [ %21, %19 ], [ %8, %7 ]
  %.0.i.ph.i = phi i32 [ %30, %26 ], [ %17, %19 ], [ %5, %7 ]
  %34 = tail call noundef ptr @_ZN6google8protobuf8internal18EpsCopyInputStream15ReadPackedFixedIfEEPKcS5_iPNS0_13RepeatedFieldIT_EE(ptr noundef nonnull align 8 dereferenceable(88) %2, ptr noundef nonnull %storemerge.i.ph.i, i32 noundef %.0.i.ph.i, ptr noundef %0)
  br label %_ZN6google8protobuf8internal11FixedParserIfEEPKcPvS4_PNS1_12ParseContextE.exit

_ZN6google8protobuf8internal11FixedParserIfEEPKcPvS4_PNS1_12ParseContextE.exit: ; preds = %22, %26, %33
  %.0.i = phi ptr [ %34, %33 ], [ null, %22 ], [ null, %26 ]
  ret ptr %.0.i
}